target datalayout = "e-m:e-p270:32:32-p271:32:32-p272:64:64-i64:64-i128:128-f80:128-n8:16:32:64-S128"
target triple = "x86_64-unknown-linux-gnu"

%"class.google::protobuf::internal::InternalMetadata" = type { i64 }
%"class.google::protobuf::internal::CachedSize" = type { i32 }
%"struct.std::atomic" = type { i64 }
%"class.google::protobuf::internal::MapAllocator" = type { ptr }
%"class.google::protobuf::Message" = type { %"class.google::protobuf::MessageLite" }
%"class.google::protobuf::MessageLite" = type { ptr, %"class.google::protobuf::internal::InternalMetadata" }
%"class.google::protobuf::Struct" = type { %"class.google::protobuf::Message", %union.anon.2 }
%union.anon.2 = type { %"struct.google::protobuf::Struct::Impl_" }
%"struct.google::protobuf::Struct::Impl_" = type <{ %"class.google::protobuf::internal::MapField", %"class.google::protobuf::internal::CachedSize", [4 x i8] }>
%"class.google::protobuf::internal::MapField" = type { %"class.google::protobuf::internal::TypeDefinedMapFieldBase" }
%"class.google::protobuf::internal::TypeDefinedMapFieldBase" = type { %"class.google::protobuf::internal::MapFieldBase", %union.anon.1 }
%"class.google::protobuf::internal::MapFieldBase" = type { %"class.google::protobuf::internal::MapFieldBaseForParse", %"struct.std::atomic" }
%"class.google::protobuf::internal::MapFieldBaseForParse" = type { ptr }
%union.anon.1 = type { %"class.google::protobuf::Map" }
%"class.google::protobuf::Map" = type { %"class.google::protobuf::internal::KeyMapBase" }
%"class.google::protobuf::internal::KeyMapBase" = type { %"class.google::protobuf::internal::UntypedMapBase" }
%"class.google::protobuf::internal::UntypedMapBase" = type { i32, i32, i32, i32, ptr, %"class.google::protobuf::internal::MapAllocator" }

; Function Attrs: mustprogress nounwind uwtable
define linkonce_odr hidden void @_ZSt4swapIN6google8protobuf8internal12MapAllocatorIPvEEENSt9enable_ifIXsr6__and_ISt6__not_ISt15__is_tuple_likeIT_EESt21is_move_constructibleIS9_ESt18is_move_assignableIS9_EEE5valueEvE4typeERS9_SI_(ptr noundef nonnull align 8 dereferenceable(8) %__a, ptr noundef nonnull align 8 dereferenceable(8) %__b) #5 comdat {
entry:
  %__a.addr = alloca ptr, align 8
  %__b.addr = alloca ptr, align 8
  %__tmp = alloca %"class.google::protobuf::internal::MapAllocator", align 8
  store ptr %__a, ptr %__a.addr, align 8
  store ptr %__b, ptr %__b.addr, align 8
  %0 = load ptr, ptr %__a.addr, align 8
  call void @llvm.memcpy.p0.p0.i64(ptr align 8 %__tmp, ptr align 8 %0, i64 8, i1 false)
  %1 = load ptr, ptr %__b.addr, align 8
  %2 = load ptr, ptr %__a.addr, align 8
  call void @llvm.memcpy.p0.p0.i64(ptr align 8 %2, ptr align 8 %1, i64 8, i1 false)
  %3 = load ptr, ptr %__b.addr, align 8
  call void @llvm.memcpy.p0.p0.i64(ptr align 8 %3, ptr align 8 %__tmp, i64 8, i1 false)
  ret void
}

; Function Attrs: mustprogress nounwind uwtable
define linkonce_odr hidden void @_ZSt4swapIPN6google8protobuf8internal13TableEntryPtrEENSt9enable_ifIXsr6__and_ISt6__not_ISt15__is_tuple_likeIT_EESt21is_move_constructibleIS8_ESt18is_move_assignableIS8_EEE5valueEvE4typeERS8_SH_(ptr noundef nonnull align 8 dereferenceable(8) %__a, ptr noundef nonnull align 8 dereferenceable(8) %__b) #5 comdat {
entry:
  %__a.addr = alloca ptr, align 8
  %__b.addr = alloca ptr, align 8
  %__tmp = alloca ptr, align 8
  store ptr %__a, ptr %__a.addr, align 8
  store ptr %__b, ptr %__b.addr, align 8
  %0 = load ptr, ptr %__a.addr, align 8
  %1 = load ptr, ptr %0, align 8
  store ptr %1, ptr %__tmp, align 8
  %2 = load ptr, ptr %__b.addr, align 8
  %3 = load ptr, ptr %2, align 8
  %4 = load ptr, ptr %__a.addr, align 8
  store ptr %3, ptr %4, align 8
  %5 = load ptr, ptr %__tmp, align 8
  %6 = load ptr, ptr %__b.addr, align 8
  store ptr %5, ptr %6, align 8
  ret void
}

; Function Attrs: mustprogress nounwind uwtable
define linkonce_odr void @_ZSt4swapIjENSt9enable_ifIXsr6__and_ISt6__not_ISt15__is_tuple_likeIT_EESt21is_move_constructibleIS3_ESt18is_move_assignableIS3_EEE5valueEvE4typeERS3_SC_(ptr noundef nonnull align 4 dereferenceable(4) %__a, ptr noundef nonnull align 4 dereferenceable(4) %__b) #5 comdat {
entry:
  %__a.addr = alloca ptr, align 8
  %__b.addr = alloca ptr, align 8
  %__tmp = alloca i32, align 4
  store ptr %__a, ptr %__a.addr, align 8
  store ptr %__b, ptr %__b.addr, align 8
  %0 = load ptr, ptr %__a.addr, align 8
  %1 = load i32, ptr %0, align 4
  store i32 %1, ptr %__tmp, align 4
  %2 = load ptr, ptr %__b.addr, align 8
  %3 = load i32, ptr %2, align 4
  %4 = load ptr, ptr %__a.addr, align 8
  store i32 %3, ptr %4, align 4
  %5 = load i32, ptr %__tmp, align 4
  %6 = load ptr, ptr %__b.addr, align 8
  store i32 %5, ptr %6, align 4
  ret void
}

; Function Attrs: mustprogress nounwind uwtable
define linkonce_odr hidden void @_ZN6google8protobuf8internal14UntypedMapBase12InternalSwapEPS2_(ptr noundef nonnull align 8 dereferenceable(32) %this, ptr noundef %other) #5 comdat align 2 {
entry:
  %this.addr = alloca ptr, align 8
  %other.addr = alloca ptr, align 8
  store ptr %this, ptr %this.addr, align 8
  store ptr %other, ptr %other.addr, align 8
  %this1 = load ptr, ptr %this.addr, align 8
  %num_elements_ = getelementptr inbounds %"class.google::protobuf::internal::UntypedMapBase", ptr %this1, i32 0, i32 0
  %0 = load ptr, ptr %other.addr, align 8
  %num_elements_2 = getelementptr inbounds %"class.google::protobuf::internal::UntypedMapBase", ptr %0, i32 0, i32 0
  call void @_ZSt4swapIjENSt9enable_ifIXsr6__and_ISt6__not_ISt15__is_tuple_likeIT_EESt21is_move_constructibleIS3_ESt18is_move_assignableIS3_EEE5valueEvE4typeERS3_SC_(ptr noundef nonnull align 4 dereferenceable(4) %num_elements_, ptr noundef nonnull align 4 dereferenceable(4) %num_elements_2) #3
  %num_buckets_ = getelementptr inbounds %"class.google::protobuf::internal::UntypedMapBase", ptr %this1, i32 0, i32 1
  %1 = load ptr, ptr %other.addr, align 8
  %num_buckets_3 = getelementptr inbounds %"class.google::protobuf::internal::UntypedMapBase", ptr %1, i32 0, i32 1
  call void @_ZSt4swapIjENSt9enable_ifIXsr6__and_ISt6__not_ISt15__is_tuple_likeIT_EESt21is_move_constructibleIS3_ESt18is_move_assignableIS3_EEE5valueEvE4typeERS3_SC_(ptr noundef nonnull align 4 dereferenceable(4) %num_buckets_, ptr noundef nonnull align 4 dereferenceable(4) %num_buckets_3) #3
  %seed_ = getelementptr inbounds %"class.google::protobuf::internal::UntypedMapBase", ptr %this1, i32 0, i32 2
  %2 = load ptr, ptr %other.addr, align 8
  %seed_4 = getelementptr inbounds %"class.google::protobuf::internal::UntypedMapBase", ptr %2, i32 0, i32 2
  call void @_ZSt4swapIjENSt9enable_ifIXsr6__and_ISt6__not_ISt15__is_tuple_likeIT_EESt21is_move_constructibleIS3_ESt18is_move_assignableIS3_EEE5valueEvE4typeERS3_SC_(ptr noundef nonnull align 4 dereferenceable(4) %seed_, ptr noundef nonnull align 4 dereferenceable(4) %seed_4) #3
  %index_of_first_non_null_ = getelementptr inbounds %"class.google::protobuf::internal::UntypedMapBase", ptr %this1, i32 0, i32 3
  %3 = load ptr, ptr %other.addr, align 8
  %index_of_first_non_null_5 = getelementptr inbounds %"class.google::protobuf::internal::UntypedMapBase", ptr %3, i32 0, i32 3
  call void @_ZSt4swapIjENSt9enable_ifIXsr6__and_ISt6__not_ISt15__is_tuple_likeIT_EESt21is_move_constructibleIS3_ESt18is_move_assignableIS3_EEE5valueEvE4typeERS3_SC_(ptr noundef nonnull align 4 dereferenceable(4) %index_of_first_non_null_, ptr noundef nonnull align 4 dereferenceable(4) %index_of_first_non_null_5) #3
  %table_ = getelementptr inbounds %"class.google::protobuf::internal::UntypedMapBase", ptr %this1, i32 0, i32 4
  %4 = load ptr, ptr %other.addr, align 8
  %table_6 = getelementptr inbounds %"class.google::protobuf::internal::UntypedMapBase", ptr %4, i32 0, i32 4
  call void @_ZSt4swapIPN6google8protobuf8internal13TableEntryPtrEENSt9enable_ifIXsr6__and_ISt6__not_ISt15__is_tuple_likeIT_EESt21is_move_constructibleIS8_ESt18is_move_assignableIS8_EEE5valueEvE4typeERS8_SH_(ptr noundef nonnull align 8 dereferenceable(8) %table_, ptr noundef nonnull align 8 dereferenceable(8) %table_6) #3
  %alloc_ = getelementptr inbounds %"class.google::protobuf::internal::UntypedMapBase", ptr %this1, i32 0, i32 5
  %5 = load ptr, ptr %other.addr, align 8
  %alloc_7 = getelementptr inbounds %"class.google::protobuf::internal::UntypedMapBase", ptr %5, i32 0, i32 5
  call void @_ZSt4swapIN6google8protobuf8internal12MapAllocatorIPvEEENSt9enable_ifIXsr6__and_ISt6__not_ISt15__is_tuple_likeIT_EESt21is_move_constructibleIS9_ESt18is_move_assignableIS9_EEE5valueEvE4typeERS9_SI_(ptr noundef nonnull align 8 dereferenceable(8) %alloc_, ptr noundef nonnull align 8 dereferenceable(8) %alloc_7) #3
  ret void
}

; Function Attrs: mustprogress uwtable
define linkonce_odr hidden void @_ZN6google8protobuf3MapINSt7__cxx1112basic_stringIcSt11char_traitsIcESaIcEEENS0_5ValueEE12InternalSwapEPS9_(ptr noundef nonnull align 8 dereferenceable(32) %this, ptr noundef %other) #4 comdat align 2 {
entry:
  %this.addr = alloca ptr, align 8
  %other.addr = alloca ptr, align 8
  store ptr %this, ptr %this.addr, align 8
  store ptr %other, ptr %other.addr, align 8
  %this1 = load ptr, ptr %this.addr, align 8
  %0 = load ptr, ptr %other.addr, align 8
  call void @_ZN6google8protobuf8internal14UntypedMapBase12InternalSwapEPS2_(ptr noundef nonnull align 8 dereferenceable(32) %this1, ptr noundef %0)
  ret void
}

; Function Attrs: mustprogress uwtable
define linkonce_odr hidden void @_ZN6google8protobuf8internal23TypeDefinedMapFieldBaseINSt7__cxx1112basic_stringIcSt11char_traitsIcESaIcEEENS0_5ValueEE12InternalSwapEPSA_(ptr noundef nonnull align 8 dereferenceable(48) %this, ptr noundef %other) #4 comdat align 2 {
entry:
  %this.addr = alloca ptr, align 8
  %other.addr = alloca ptr, align 8
  store ptr %this, ptr %this.addr, align 8
  store ptr %other, ptr %other.addr, align 8
  %this1 = load ptr, ptr %this.addr, align 8
  %0 = load ptr, ptr %other.addr, align 8
  call void @_ZN6google8protobuf8internal12MapFieldBase12InternalSwapEPS2_(ptr noundef nonnull align 8 dereferenceable(16) %this1, ptr noundef %0)
  %1 = getelementptr inbounds %"class.google::protobuf::internal::TypeDefinedMapFieldBase", ptr %this1, i32 0, i32 1
  %2 = load ptr, ptr %other.addr, align 8
  %3 = getelementptr inbounds %"class.google::protobuf::internal::TypeDefinedMapFieldBase", ptr %2, i32 0, i32 1
  call void @_ZN6google8protobuf3MapINSt7__cxx1112basic_stringIcSt11char_traitsIcESaIcEEENS0_5ValueEE12InternalSwapEPS9_(ptr noundef nonnull align 8 dereferenceable(32) %1, ptr noundef %3)
  ret void
}

; Function Attrs: mustprogress nounwind uwtable
define linkonce_odr void @_ZSt4swapIlENSt9enable_ifIXsr6__and_ISt6__not_ISt15__is_tuple_likeIT_EESt21is_move_constructibleIS3_ESt18is_move_assignableIS3_EEE5valueEvE4typeERS3_SC_(ptr noundef nonnull align 8 dereferenceable(8) %__a, ptr noundef nonnull align 8 dereferenceable(8) %__b) #5 comdat {
entry:
  %__a.addr = alloca ptr, align 8
  %__b.addr = alloca ptr, align 8
  %__tmp = alloca i64, align 8
  store ptr %__a, ptr %__a.addr, align 8
  store ptr %__b, ptr %__b.addr, align 8
  %0 = load ptr, ptr %__a.addr, align 8
  %1 = load i64, ptr %0, align 8
  store i64 %1, ptr %__tmp, align 8
  %2 = load ptr, ptr %__b.addr, align 8
  %3 = load i64, ptr %2, align 8
  %4 = load ptr, ptr %__a.addr, align 8
  store i64 %3, ptr %4, align 8
  %5 = load i64, ptr %__tmp, align 8
  %6 = load ptr, ptr %__b.addr, align 8
  store i64 %5, ptr %6, align 8
  ret void
}

; Function Attrs: mustprogress uwtable
define void @_ZN6google8protobuf6Struct12InternalSwapEPS1_(ptr noundef nonnull align 8 dereferenceable(72) %this, ptr noalias noundef %other) #4 align 2 {
entry:
  %this.addr.i = alloca ptr, align 8
  %other.addr.i = alloca ptr, align 8
  %this.addr = alloca ptr, align 8
  %other.addr = alloca ptr, align 8
  store ptr %this, ptr %this.addr, align 8
  store ptr %other, ptr %other.addr, align 8
  %this1 = load ptr, ptr %this.addr, align 8
  %_internal_metadata_ = getelementptr inbounds %"class.google::protobuf::MessageLite", ptr %this1, i32 0, i32 1
  %0 = load ptr, ptr %other.addr, align 8
  %_internal_metadata_2 = getelementptr inbounds %"class.google::protobuf::MessageLite", ptr %0, i32 0, i32 1
  call void @llvm.experimental.noalias.scope.decl(metadata !6)
  store ptr %_internal_metadata_, ptr %this.addr.i, align 8, !noalias !6
  store ptr %_internal_metadata_2, ptr %other.addr.i, align 8, !noalias !6
  %this1.i = load ptr, ptr %this.addr.i, align 8, !noalias !6
  %1 = load ptr, ptr %other.addr.i, align 8, !noalias !6
  call void @_ZSt4swapIlENSt9enable_ifIXsr6__and_ISt6__not_ISt15__is_tuple_likeIT_EESt21is_move_constructibleIS3_ESt18is_move_assignableIS3_EEE5valueEvE4typeERS3_SC_(ptr noundef nonnull align 8 dereferenceable(8) %this1.i, ptr noundef nonnull align 8 dereferenceable(8) %1) #3
  %2 = getelementptr inbounds %"class.google::protobuf::Struct", ptr %this1, i32 0, i32 1
  %fields_ = getelementptr inbounds %"struct.google::protobuf::Struct::Impl_", ptr %2, i32 0, i32 0
  %3 = load ptr, ptr %other.addr, align 8
  %4 = getelementptr inbounds %"class.google::protobuf::Struct", ptr %3, i32 0, i32 1
  %fields_3 = getelementptr inbounds %"struct.google::protobuf::Struct::Impl_", ptr %4, i32 0, i32 0
  call void @_ZN6google8protobuf8internal23TypeDefinedMapFieldBaseINSt7__cxx1112basic_stringIcSt11char_traitsIcESaIcEEENS0_5ValueEE12InternalSwapEPSA_(ptr noundef nonnull align 8 dereferenceable(48) %fields_, ptr noundef %fields_3)
  ret void
}