; Function Attrs: mustprogress uwtable
define void @_ZN6google8protobuf6Struct12InternalSwapEPS1_(ptr noundef nonnull align 8 dereferenceable(72) %this, ptr noalias noundef %other) local_unnamed_addr #3 align 2 {
entry:
  %_internal_metadata_ = getelementptr inbounds i8, ptr %this, i64 8
  %_internal_metadata_2 = getelementptr inbounds i8, ptr %other, i64 8
  %0 = load i64, ptr %_internal_metadata_, align 8
  %1 = load i64, ptr %_internal_metadata_2, align 8
  store i64 %1, ptr %_internal_metadata_, align 8
  store i64 %0, ptr %_internal_metadata_2, align 8
  %2 = getelementptr inbounds i8, ptr %this, i64 16
  %3 = getelementptr inbounds i8, ptr %other, i64 16
  tail call void @_ZN6google8protobuf8internal12MapFieldBase12InternalSwapEPS2_(ptr noundef nonnull align 8 dereferenceable(16) %2, ptr noundef nonnull %3)
  %4 = getelementptr inbounds i8, ptr %this, i64 32
  %5 = getelementptr inbounds i8, ptr %other, i64 32
  %6 = load <4 x i32>, ptr %5, align 4
  %7 = load <4 x i32>, ptr %4, align 8
  store <4 x i32> %6, ptr %4, align 8
  store <4 x i32> %7, ptr %5, align 4
  %table_.i.i.i = getelementptr inbounds i8, ptr %this, i64 48
  %table_6.i.i.i = getelementptr inbounds i8, ptr %other, i64 48
  %8 = load ptr, ptr %table_6.i.i.i, align 8
  %alloc_.i.i.i = getelementptr inbounds i8, ptr %this, i64 56
  %alloc_7.i.i.i = getelementptr inbounds i8, ptr %other, i64 56
  %9 = load i64, ptr %alloc_7.i.i.i, align 8
  %10 = load <2 x ptr>, ptr %table_.i.i.i, align 8
  store ptr %8, ptr %table_.i.i.i, align 8
  store i64 %9, ptr %alloc_.i.i.i, align 8
  store <2 x ptr> %10, ptr %table_6.i.i.i, align 8
  ret void
}